target datalayout = "e-m:e-p270:32:32-p271:32:32-p272:64:64-i64:64-i128:128-f80:128-n8:16:32:64-S128"
target triple = "x86_64-pc-linux-gnu"

%struct.FunctionCallInfoBaseData = type { ptr, ptr, ptr, i32, i8, i16, [0 x %struct.NullableDatum] }
%struct.NullableDatum = type { i64, i8 }
%struct.DictISpell = type { %struct.StopList, %struct.IspellDict }
%struct.StopList = type { i32, ptr }
%struct.IspellDict = type { i32, i32, ptr, ptr, ptr, ptr, ptr, i32, i32, i8, ptr, i8, i32, ptr, i32, i32, ptr, ptr, i32, i32, ptr, i64 }
%struct.TSLexeme = type { i16, i16, ptr }

; Function Attrs: inlinehint nounwind uwtable
define internal i64 @PointerGetDatum(ptr noundef %0) #2 {
  %2 = alloca ptr, align 8
  store ptr %0, ptr %2, align 8
  %3 = load ptr, ptr %2, align 8
  %4 = ptrtoint ptr %3 to i64
  ret i64 %4
}

; Function Attrs: inlinehint nounwind uwtable
define internal i32 @DatumGetInt32(i64 noundef %0) #2 {
  %2 = alloca i64, align 8
  store i64 %0, ptr %2, align 8
  %3 = load i64, ptr %2, align 8
  %4 = trunc i64 %3 to i32
  ret i32 %4
}

; Function Attrs: inlinehint nounwind uwtable
define internal ptr @DatumGetPointer(i64 noundef %0) #2 {
  %2 = alloca i64, align 8
  store i64 %0, ptr %2, align 8
  %3 = load i64, ptr %2, align 8
  %4 = inttoptr i64 %3 to ptr
  ret ptr %4
}

; Function Attrs: nounwind uwtable
define dso_local i64 @dispell_lexize(ptr noundef %0) #0 {
  %2 = alloca i64, align 8
  %3 = alloca ptr, align 8
  %4 = alloca ptr, align 8
  %5 = alloca ptr, align 8
  %6 = alloca i32, align 4
  %7 = alloca ptr, align 8
  %8 = alloca ptr, align 8
  %9 = alloca ptr, align 8
  %10 = alloca ptr, align 8
  %11 = alloca i32, align 4
  store ptr %0, ptr %3, align 8
  call void @llvm.lifetime.start.p0(i64 8, ptr %4) #8
  %12 = load ptr, ptr %3, align 8
  %13 = getelementptr inbounds nuw %struct.FunctionCallInfoBaseData, ptr %12, i32 0, i32 6
  %14 = getelementptr inbounds [0 x %struct.NullableDatum], ptr %13, i64 0, i64 0
  %15 = getelementptr inbounds nuw %struct.NullableDatum, ptr %14, i32 0, i32 0
  %16 = load i64, ptr %15, align 8
  %17 = call ptr @DatumGetPointer(i64 noundef %16)
  store ptr %17, ptr %4, align 8
  call void @llvm.lifetime.start.p0(i64 8, ptr %5) #8
  %18 = load ptr, ptr %3, align 8
  %19 = getelementptr inbounds nuw %struct.FunctionCallInfoBaseData, ptr %18, i32 0, i32 6
  %20 = getelementptr inbounds [0 x %struct.NullableDatum], ptr %19, i64 0, i64 1
  %21 = getelementptr inbounds nuw %struct.NullableDatum, ptr %20, i32 0, i32 0
  %22 = load i64, ptr %21, align 8
  %23 = call ptr @DatumGetPointer(i64 noundef %22)
  store ptr %23, ptr %5, align 8
  call void @llvm.lifetime.start.p0(i64 4, ptr %6) #8
  %24 = load ptr, ptr %3, align 8
  %25 = getelementptr inbounds nuw %struct.FunctionCallInfoBaseData, ptr %24, i32 0, i32 6
  %26 = getelementptr inbounds [0 x %struct.NullableDatum], ptr %25, i64 0, i64 2
  %27 = getelementptr inbounds nuw %struct.NullableDatum, ptr %26, i32 0, i32 0
  %28 = load i64, ptr %27, align 8
  %29 = call i32 @DatumGetInt32(i64 noundef %28)
  store i32 %29, ptr %6, align 4
  call void @llvm.lifetime.start.p0(i64 8, ptr %7) #8
  call void @llvm.lifetime.start.p0(i64 8, ptr %8) #8
  call void @llvm.lifetime.start.p0(i64 8, ptr %9) #8
  call void @llvm.lifetime.start.p0(i64 8, ptr %10) #8
  %30 = load i32, ptr %6, align 4
  %31 = icmp sle i32 %30, 0
  br i1 %31, label %32, label %34

32:                                               ; preds = %1
  %33 = call i64 @PointerGetDatum(ptr noundef null)
  store i64 %33, ptr %2, align 8
  store i32 1, ptr %11, align 4
  br label %87

34:                                               ; preds = %1
  %35 = load ptr, ptr %5, align 8
  %36 = load i32, ptr %6, align 4
  %37 = sext i32 %36 to i64
  %38 = call ptr @str_tolower(ptr noundef %35, i64 noundef %37, i32 noundef 100)
  store ptr %38, ptr %7, align 8
  %39 = load ptr, ptr %4, align 8
  %40 = getelementptr inbounds nuw %struct.DictISpell, ptr %39, i32 0, i32 1
  %41 = load ptr, ptr %7, align 8
  %42 = call ptr @NINormalizeWord(ptr noundef %40, ptr noundef %41)
  store ptr %42, ptr %8, align 8
  %43 = load ptr, ptr %8, align 8
  %44 = icmp eq ptr %43, null
  br i1 %44, label %45, label %47

45:                                               ; preds = %34
  %46 = call i64 @PointerGetDatum(ptr noundef null)
  store i64 %46, ptr %2, align 8
  store i32 1, ptr %11, align 4
  br label %87

47:                                               ; preds = %34
  %48 = load ptr, ptr %8, align 8
  store ptr %48, ptr %10, align 8
  %49 = load ptr, ptr %10, align 8
  store ptr %49, ptr %9, align 8
  br label %50

50:                                               ; preds = %79, %47
  %51 = load ptr, ptr %9, align 8
  %52 = getelementptr inbounds nuw %struct.TSLexeme, ptr %51, i32 0, i32 2
  %53 = load ptr, ptr %52, align 8
  %54 = icmp ne ptr %53, null
  br i1 %54, label %55, label %82

55:                                               ; preds = %50
  %56 = load ptr, ptr %4, align 8
  %57 = getelementptr inbounds nuw %struct.DictISpell, ptr %56, i32 0, i32 0
  %58 = load ptr, ptr %9, align 8
  %59 = getelementptr inbounds nuw %struct.TSLexeme, ptr %58, i32 0, i32 2
  %60 = load ptr, ptr %59, align 8
  %61 = call zeroext i1 @searchstoplist(ptr noundef %57, ptr noundef %60)
  br i1 %61, label %62, label %68

62:                                               ; preds = %55
  %63 = load ptr, ptr %9, align 8
  %64 = getelementptr inbounds nuw %struct.TSLexeme, ptr %63, i32 0, i32 2
  %65 = load ptr, ptr %64, align 8
  call void @pfree(ptr noundef %65)
  %66 = load ptr, ptr %9, align 8
  %67 = getelementptr inbounds nuw %struct.TSLexeme, ptr %66, i32 0, i32 2
  store ptr null, ptr %67, align 8
  br label %78

68:                                               ; preds = %55
  %69 = load ptr, ptr %10, align 8
  %70 = load ptr, ptr %9, align 8
  %71 = icmp ne ptr %69, %70
  br i1 %71, label %72, label %75

72:                                               ; preds = %68
  %73 = load ptr, ptr %10, align 8
  %74 = load ptr, ptr %9, align 8
  call void @llvm.memcpy.p0.p0.i64(ptr align 8 %73, ptr align 8 %74, i64 16, i1 false)
  br label %75

75:                                               ; preds = %72, %68
  %76 = load ptr, ptr %10, align 8
  %77 = getelementptr inbounds nuw %struct.TSLexeme, ptr %76, i32 1
  store ptr %77, ptr %10, align 8
  br label %78

78:                                               ; preds = %75, %62
  br label %79

79:                                               ; preds = %78
  %80 = load ptr, ptr %9, align 8
  %81 = getelementptr inbounds nuw %struct.TSLexeme, ptr %80, i32 1
  store ptr %81, ptr %9, align 8
  br label %50, !llvm.loop !8

82:                                               ; preds = %50
  %83 = load ptr, ptr %10, align 8
  %84 = getelementptr inbounds nuw %struct.TSLexeme, ptr %83, i32 0, i32 2
  store ptr null, ptr %84, align 8
  %85 = load ptr, ptr %8, align 8
  %86 = call i64 @PointerGetDatum(ptr noundef %85)
  store i64 %86, ptr %2, align 8
  store i32 1, ptr %11, align 4
  br label %87

87:                                               ; preds = %82, %45, %32
  call void @llvm.lifetime.end.p0(i64 8, ptr %10) #8
  call void @llvm.lifetime.end.p0(i64 8, ptr %9) #8
  call void @llvm.lifetime.end.p0(i64 8, ptr %8) #8
  call void @llvm.lifetime.end.p0(i64 8, ptr %7) #8
  call void @llvm.lifetime.end.p0(i64 4, ptr %6) #8
  call void @llvm.lifetime.end.p0(i64 8, ptr %5) #8
  call void @llvm.lifetime.end.p0(i64 8, ptr %4) #8
  %88 = load i64, ptr %2, align 8
  ret i64 %88
}