; Function Attrs: nounwind uwtable
define dso_local i64 @dispell_lexize(ptr noundef readonly captures(none) %0) local_unnamed_addr #0 {
  %2 = getelementptr inbounds nuw i8, ptr %0, i64 32
  %3 = load i64, ptr %2, align 8
  %4 = inttoptr i64 %3 to ptr
  %5 = getelementptr inbounds nuw i8, ptr %0, i64 64
  %6 = load i64, ptr %5, align 8
  %7 = trunc i64 %6 to i32
  %8 = icmp slt i32 %7, 1
  br i1 %8, label %35, label %9

9:                                                ; preds = %1
  %10 = getelementptr inbounds nuw i8, ptr %0, i64 48
  %11 = load i64, ptr %10, align 8
  %12 = inttoptr i64 %11 to ptr
  %13 = and i64 %6, 2147483647
  %14 = tail call ptr @str_tolower(ptr noundef %12, i64 noundef %13, i32 noundef 100) #6
  %15 = getelementptr inbounds nuw i8, ptr %4, i64 16
  %16 = tail call ptr @NINormalizeWord(ptr noundef nonnull %15, ptr noundef %14) #6
  %17 = icmp eq ptr %16, null
  br i1 %17, label %35, label %.preheader

.preheader:                                       ; preds = %9
  %18 = getelementptr inbounds nuw i8, ptr %16, i64 8
  %19 = load ptr, ptr %18, align 8
  %.not30 = icmp eq ptr %19, null
  br i1 %.not30, label %._crit_edge, label %.lr.ph

.lr.ph:                                           ; preds = %.preheader, %29
  %20 = phi ptr [ %32, %29 ], [ %19, %.preheader ]
  %21 = phi ptr [ %31, %29 ], [ %18, %.preheader ]
  %.032 = phi ptr [ %.1, %29 ], [ %16, %.preheader ]
  %.02431 = phi ptr [ %30, %29 ], [ %16, %.preheader ]
  %22 = tail call zeroext i1 @searchstoplist(ptr noundef %4, ptr noundef nonnull %20) #6
  br i1 %22, label %23, label %25

23:                                               ; preds = %.lr.ph
  %24 = load ptr, ptr %21, align 8
  tail call void @pfree(ptr noundef %24) #6
  store ptr null, ptr %21, align 8
  br label %29

25:                                               ; preds = %.lr.ph
  %.not29 = icmp eq ptr %.032, %.02431
  br i1 %.not29, label %27, label %26

26:                                               ; preds = %25
  tail call void @llvm.memcpy.p0.p0.i64(ptr noundef nonnull align 8 dereferenceable(16) %.032, ptr noundef nonnull align 8 dereferenceable(16) %.02431, i64 16, i1 false)
  br label %27

27:                                               ; preds = %26, %25
  %28 = getelementptr inbounds nuw i8, ptr %.032, i64 16
  br label %29

29:                                               ; preds = %23, %27
  %.1 = phi ptr [ %.032, %23 ], [ %28, %27 ]
  %30 = getelementptr inbounds nuw i8, ptr %.02431, i64 16
  %31 = getelementptr inbounds nuw i8, ptr %.02431, i64 24
  %32 = load ptr, ptr %31, align 8
  %.not = icmp eq ptr %32, null
  br i1 %.not, label %._crit_edge, label %.lr.ph, !llvm.loop !4

._crit_edge:                                      ; preds = %29, %.preheader
  %.0.lcssa = phi ptr [ %16, %.preheader ], [ %.1, %29 ]
  %33 = getelementptr inbounds nuw i8, ptr %.0.lcssa, i64 8
  store ptr null, ptr %33, align 8
  %34 = ptrtoint ptr %16 to i64
  br label %35

35:                                               ; preds = %9, %1, %._crit_edge
  %.025 = phi i64 [ %34, %._crit_edge ], [ 0, %1 ], [ 0, %9 ]
  ret i64 %.025
}